target datalayout = "e-m:e-p270:32:32-p271:32:32-p272:64:64-i64:64-i128:128-f80:128-n8:16:32:64-S128"
target triple = "x86_64-unknown-linux-gnu"

%struct.QemuMutex = type { %union.pthread_mutex_t, i8 }
%union.pthread_mutex_t = type { %struct.__pthread_mutex_s }
%struct.__pthread_mutex_s = type { i32, i32, i32, i32, i32, i16, i16, %struct.__pthread_internal_list }
%struct.__pthread_internal_list = type { ptr, ptr }

@.str.1 = private unnamed_addr constant [25 x i8] c"../qemu/system/physmem.c\00", align 1
@qemu_mutex_lock_func = external global ptr, align 8
@ram_block_discard_disabled_cnt = internal global i32 0, align 4
@ram_block_coordinated_discard_required_cnt = internal global i32 0, align 4
@ram_block_discard_disable_mutex_lock.initialized = internal global i64 0, align 8
@ram_block_discard_disable_mutex = internal global %struct.QemuMutex zeroinitializer, align 8
@__func__.ram_block_discard_disable_mutex_lock = private unnamed_addr constant [37 x i8] c"ram_block_discard_disable_mutex_lock\00", align 1

; Function Attrs: nounwind sspstrong uwtable
define internal void @ram_block_discard_disable_mutex_unlock() #0 {
entry:
  call void @qemu_mutex_unlock_impl(ptr noundef @ram_block_discard_disable_mutex, ptr noundef @.str.1, i32 noundef 3722)
  ret void
}

; Function Attrs: nounwind sspstrong uwtable
define internal void @ram_block_discard_disable_mutex_lock() #0 {
entry:
  %tmp = alloca i32, align 4
  %gapg_temp_newval = alloca i64, align 8
  %gapg_temp_atomic = alloca ptr, align 8
  %tmp1 = alloca i64, align 8
  %_f = alloca ptr, align 8
  %tmp4 = alloca ptr, align 8
  %atomic-temp = alloca ptr, align 8
  store ptr @ram_block_discard_disable_mutex_lock.initialized, ptr %gapg_temp_atomic, align 8
  %0 = load ptr, ptr %gapg_temp_atomic, align 8
  %1 = load atomic i64, ptr %0 seq_cst, align 8
  store i64 %1, ptr %gapg_temp_newval, align 8
  %2 = load i64, ptr %gapg_temp_newval, align 8
  store i64 %2, ptr %tmp1, align 8
  %3 = load i64, ptr %tmp1, align 8
  %tobool = icmp ne i64 %3, 0
  br i1 %tobool, label %land.end, label %land.rhs

land.rhs:                                         ; preds = %entry
  %call = call i32 @g_once_init_enter(ptr noundef @ram_block_discard_disable_mutex_lock.initialized)
  %tobool2 = icmp ne i32 %call, 0
  br label %land.end

land.end:                                         ; preds = %land.rhs, %entry
  %4 = phi i1 [ false, %entry ], [ %tobool2, %land.rhs ]
  %land.ext = zext i1 %4 to i32
  store i32 %land.ext, ptr %tmp, align 4
  %5 = load i32, ptr %tmp, align 4
  %tobool3 = icmp ne i32 %5, 0
  br i1 %tobool3, label %if.then, label %if.end

if.then:                                          ; preds = %land.end
  call void @qemu_mutex_init(ptr noundef @ram_block_discard_disable_mutex)
  call void @g_once_init_leave(ptr noundef @ram_block_discard_disable_mutex_lock.initialized, i64 noundef 1)
  br label %if.end

if.end:                                           ; preds = %if.then, %land.end
  br label %while.cond

while.cond:                                       ; preds = %do.end, %if.end
  br i1 false, label %while.body, label %while.end

while.body:                                       ; preds = %while.cond
  br label %do.body

do.body:                                          ; preds = %while.body
  call void @g_assertion_message_expr(ptr noundef null, ptr noundef @.str.1, i32 noundef 3717, ptr noundef @__func__.ram_block_discard_disable_mutex_lock, ptr noundef null) #14
  unreachable

do.end:                                           ; No predecessors!
  br label %while.cond

while.end:                                        ; preds = %while.cond
  %6 = load atomic i64, ptr @qemu_mutex_lock_func monotonic, align 8
  store i64 %6, ptr %atomic-temp, align 8
  %7 = load ptr, ptr %atomic-temp, align 8
  store ptr %7, ptr %tmp4, align 8
  %8 = load ptr, ptr %tmp4, align 8
  store ptr %8, ptr %_f, align 8
  %9 = load ptr, ptr %_f, align 8
  call void %9(ptr noundef @ram_block_discard_disable_mutex, ptr noundef @.str.1, i32 noundef 3717)
  ret void
}

; Function Attrs: nounwind sspstrong uwtable
define dso_local i32 @ram_block_coordinated_discard_require(i1 noundef zeroext %state) #0 {
entry:
  %state.addr = alloca i8, align 1
  %ret = alloca i32, align 4
  %frombool = zext i1 %state to i8
  store i8 %frombool, ptr %state.addr, align 1
  store i32 0, ptr %ret, align 4
  call void @ram_block_discard_disable_mutex_lock()
  %0 = load i8, ptr %state.addr, align 1
  %tobool = trunc i8 %0 to i1
  br i1 %tobool, label %if.else, label %if.then

if.then:                                          ; preds = %entry
  %1 = load i32, ptr @ram_block_coordinated_discard_required_cnt, align 4
  %dec = add i32 %1, -1
  store i32 %dec, ptr @ram_block_coordinated_discard_required_cnt, align 4
  br label %if.end4

if.else:                                          ; preds = %entry
  %2 = load i32, ptr @ram_block_discard_disabled_cnt, align 4
  %tobool1 = icmp ne i32 %2, 0
  br i1 %tobool1, label %if.then2, label %if.else3

if.then2:                                         ; preds = %if.else
  store i32 -16, ptr %ret, align 4
  br label %if.end

if.else3:                                         ; preds = %if.else
  %3 = load i32, ptr @ram_block_coordinated_discard_required_cnt, align 4
  %inc = add i32 %3, 1
  store i32 %inc, ptr @ram_block_coordinated_discard_required_cnt, align 4
  br label %if.end

if.end:                                           ; preds = %if.else3, %if.then2
  br label %if.end4

if.end4:                                          ; preds = %if.end, %if.then
  call void @ram_block_discard_disable_mutex_unlock()
  %4 = load i32, ptr %ret, align 4
  ret i32 %4
}