; Function Attrs: nounwind sspstrong uwtable
define dso_local range(i32 -16, 1) i32 @ram_block_coordinated_discard_require(i1 noundef zeroext %state) local_unnamed_addr #0 {
entry:
  %0 = load atomic i64, ptr @ram_block_discard_disable_mutex_lock.initialized seq_cst, align 8
  %tobool.not.i = icmp eq i64 %0, 0
  br i1 %tobool.not.i, label %land.rhs.i, label %ram_block_discard_disable_mutex_lock.exit

land.rhs.i:                                       ; preds = %entry
  %call.i = tail call i32 @g_once_init_enter(ptr noundef nonnull @ram_block_discard_disable_mutex_lock.initialized) #28
  %tobool2.not.i = icmp eq i32 %call.i, 0
  br i1 %tobool2.not.i, label %ram_block_discard_disable_mutex_lock.exit, label %if.then.i

if.then.i:                                        ; preds = %land.rhs.i
  tail call void @qemu_mutex_init(ptr noundef nonnull @ram_block_discard_disable_mutex) #28
  tail call void @g_once_init_leave(ptr noundef nonnull @ram_block_discard_disable_mutex_lock.initialized, i64 noundef 1) #28
  br label %ram_block_discard_disable_mutex_lock.exit

ram_block_discard_disable_mutex_lock.exit:        ; preds = %entry, %land.rhs.i, %if.then.i
  %1 = load atomic i64, ptr @qemu_mutex_lock_func monotonic, align 8
  %2 = inttoptr i64 %1 to ptr
  tail call void %2(ptr noundef nonnull @ram_block_discard_disable_mutex, ptr noundef nonnull @.str.1, i32 noundef 3717) #28
  br i1 %state, label %if.else, label %if.end4.sink.split

if.else:                                          ; preds = %ram_block_discard_disable_mutex_lock.exit
  %3 = load i32, ptr @ram_block_discard_disabled_cnt, align 4
  %tobool1.not = icmp eq i32 %3, 0
  br i1 %tobool1.not, label %if.end4.sink.split, label %if.end4

if.end4.sink.split:                               ; preds = %if.else, %ram_block_discard_disable_mutex_lock.exit
  %.sink1 = phi i32 [ -1, %ram_block_discard_disable_mutex_lock.exit ], [ 1, %if.else ]
  %4 = load i32, ptr @ram_block_coordinated_discard_required_cnt, align 4
  %inc = add i32 %4, %.sink1
  store i32 %inc, ptr @ram_block_coordinated_discard_required_cnt, align 4
  br label %if.end4

if.end4:                                          ; preds = %if.end4.sink.split, %if.else
  %ret.0 = phi i32 [ -16, %if.else ], [ 0, %if.end4.sink.split ]
  tail call void @qemu_mutex_unlock_impl(ptr noundef nonnull @ram_block_discard_disable_mutex, ptr noundef nonnull @.str.1, i32 noundef 3722) #28
  ret i32 %ret.0
}